target datalayout = "e-m:e-p270:32:32-p271:32:32-p272:64:64-i64:64-i128:128-f80:128-n8:16:32:64-S128"
target triple = "x86_64-unknown-linux-gnu"

%struct.QTailQLink = type { ptr, ptr }
%struct.AHCIState = type { ptr, ptr, %struct.AHCIControlRegs, %struct.MemoryRegion, %struct.MemoryRegion, i32, i32, i32, ptr, ptr }
%struct.AHCIControlRegs = type { i32, i32, i32, i32, i32 }
%struct.MemoryRegion = type { %struct.Object, i8, i8, i8, i8, i8, i8, i8, i8, i8, i8, ptr, ptr, ptr, ptr, ptr, ptr, i32, i128, i64, ptr, i64, i8, i8, i8, i8, i8, ptr, i64, i32, %union.anon, %union.anon.0, %union.anon.1, ptr, i32, ptr, ptr, i8 }
%struct.Object = type { ptr, ptr, ptr, i32, ptr }
%union.anon = type { %struct.QTailQLink }
%union.anon.0 = type { %struct.QTailQLink }
%union.anon.1 = type { %struct.QTailQLink }
%struct.AHCIDevice = type { %struct.IDEDMA, %struct.IDEBus, i32, i32, i32, %struct.AHCIPortRegs, ptr, ptr, ptr, ptr, i8, i32, i8, ptr, [32 x %struct.NCQTransferState], %struct.MemReentrancyGuard }
%struct.IDEDMA = type { ptr, %struct.QEMUIOVector, ptr }
%struct.QEMUIOVector = type { ptr, i32, %union.anon.3 }
%union.anon.3 = type { %struct.anon.4 }
%struct.anon.4 = type { i32, %struct.iovec }
%struct.iovec = type { ptr, i64 }
%struct.IDEBus = type { %struct.BusState, ptr, ptr, [2 x %struct.IDEState], ptr, i32, i32, ptr, i8, i8, ptr, i32, i8, i64, i32, %struct.PortioList, %struct.PortioList, ptr }
%struct.BusState = type { %struct.Object, ptr, ptr, ptr, i32, i8, i8, i32, %union.BusChildHead, %struct.BusStateEntry, %struct.ResettableState }
%union.BusChildHead = type { %struct.QTailQLink }
%struct.BusStateEntry = type { ptr, ptr }
%struct.ResettableState = type { i32, i8, i8 }
%struct.IDEState = type { ptr, i8, i32, i32, i32, i32, i32, i32, i32, i64, i32, i32, [512 x i8], i32, [21 x i8], [41 x i8], i64, i8, i8, i32, i8, i8, i8, i8, i8, i8, i8, i8, i8, i8, i8, i8, i8, ptr, [9 x i8], %struct.unreported_events, i8, i8, i8, i8, i8, i32, i32, i32, i32, i32, i32, %struct.BlockAcctCookie, ptr, %struct.QEMUIOVector, %struct.anon.6, i64, i32, %struct.QEMUSGList, i32, ptr, ptr, ptr, ptr, i32, i32, i32, i8, ptr, i32, i8, i32, ptr, i32, i32, i8, i8, i32, i8, ptr, i32 }
%struct.unreported_events = type { i8, i8 }
%struct.BlockAcctCookie = type { i64, i64, i32 }
%struct.anon.6 = type { ptr }
%struct.QEMUSGList = type { ptr, i32, i32, i64, ptr, ptr }
%struct.PortioList = type { ptr, ptr, ptr, i32, ptr, ptr, ptr, i8 }
%struct.AHCIPortRegs = type { i32, i32, i32, i32, i32, i32, i32, i32, i32, i32, i32, i32, i32, i32, i32, i32 }
%struct.NCQTransferState = type { ptr, ptr, ptr, %struct.QEMUSGList, %struct.BlockAcctCookie, i32, i64, i8, i8, i8, i8, i8 }
%struct.MemReentrancyGuard = type { i8 }
%struct.AHCICmdHdr = type { i16, i16, i32, i64, [4 x i32] }

@.str.195 = private unnamed_addr constant [78 x i8] c"AHCI: DMA engine should be off, but status bit indicates it is still running.\00", align 1
@.str.196 = private unnamed_addr constant [81 x i8] c"AHCI: FIS RX engine should be off, but status bit indicates it is still running.\00", align 1

; Function Attrs: nounwind sspstrong uwtable
define internal ptr @get_cmd_header(ptr noundef %s, i8 noundef zeroext %port, i8 noundef zeroext %slot) #0 {
entry:
  %retval = alloca ptr, align 8
  %s.addr = alloca ptr, align 8
  %port.addr = alloca i8, align 1
  %slot.addr = alloca i8, align 1
  store ptr %s, ptr %s.addr, align 8
  store i8 %port, ptr %port.addr, align 1
  store i8 %slot, ptr %slot.addr, align 1
  %0 = load i8, ptr %port.addr, align 1
  %conv = zext i8 %0 to i32
  %1 = load ptr, ptr %s.addr, align 8
  %ports = getelementptr inbounds %struct.AHCIState, ptr %1, i32 0, i32 7
  %2 = load i32, ptr %ports, align 8
  %cmp = icmp sge i32 %conv, %2
  br i1 %cmp, label %if.then, label %lor.lhs.false

lor.lhs.false:                                    ; preds = %entry
  %3 = load i8, ptr %slot.addr, align 1
  %conv2 = zext i8 %3 to i32
  %cmp3 = icmp sge i32 %conv2, 32
  br i1 %cmp3, label %if.then, label %if.end

if.then:                                          ; preds = %lor.lhs.false, %entry
  store ptr null, ptr %retval, align 8
  br label %return

if.end:                                           ; preds = %lor.lhs.false
  %4 = load ptr, ptr %s.addr, align 8
  %dev = getelementptr inbounds %struct.AHCIState, ptr %4, i32 0, i32 1
  %5 = load ptr, ptr %dev, align 8
  %6 = load i8, ptr %port.addr, align 1
  %idxprom = zext i8 %6 to i64
  %arrayidx = getelementptr %struct.AHCIDevice, ptr %5, i64 %idxprom
  %lst = getelementptr inbounds %struct.AHCIDevice, ptr %arrayidx, i32 0, i32 8
  %7 = load ptr, ptr %lst, align 8
  %tobool = icmp ne ptr %7, null
  br i1 %tobool, label %cond.true, label %cond.false

cond.true:                                        ; preds = %if.end
  %8 = load ptr, ptr %s.addr, align 8
  %dev5 = getelementptr inbounds %struct.AHCIState, ptr %8, i32 0, i32 1
  %9 = load ptr, ptr %dev5, align 8
  %10 = load i8, ptr %port.addr, align 1
  %idxprom6 = zext i8 %10 to i64
  %arrayidx7 = getelementptr %struct.AHCIDevice, ptr %9, i64 %idxprom6
  %lst8 = getelementptr inbounds %struct.AHCIDevice, ptr %arrayidx7, i32 0, i32 8
  %11 = load ptr, ptr %lst8, align 8
  %12 = load i8, ptr %slot.addr, align 1
  %idxprom9 = zext i8 %12 to i64
  %arrayidx10 = getelementptr %struct.AHCICmdHdr, ptr %11, i64 %idxprom9
  br label %cond.end

cond.false:                                       ; preds = %if.end
  br label %cond.end

cond.end:                                         ; preds = %cond.false, %cond.true
  %cond = phi ptr [ %arrayidx10, %cond.true ], [ null, %cond.false ]
  store ptr %cond, ptr %retval, align 8
  br label %return

return:                                           ; preds = %cond.end, %if.then
  %13 = load ptr, ptr %retval, align 8
  ret ptr %13
}

; Function Attrs: nounwind sspstrong uwtable
define internal i32 @is_ncq(i8 noundef zeroext %ata_cmd) #0 {
entry:
  %retval = alloca i32, align 4
  %ata_cmd.addr = alloca i8, align 1
  store i8 %ata_cmd, ptr %ata_cmd.addr, align 1
  %0 = load i8, ptr %ata_cmd.addr, align 1
  %conv = zext i8 %0 to i32
  switch i32 %conv, label %sw.default [
    i32 96, label %sw.bb
    i32 97, label %sw.bb
    i32 99, label %sw.bb
    i32 101, label %sw.bb
    i32 100, label %sw.bb
  ]

sw.bb:                                            ; preds = %entry, %entry, %entry, %entry, %entry
  store i32 1, ptr %retval, align 4
  br label %return

sw.default:                                       ; preds = %entry
  store i32 0, ptr %retval, align 4
  br label %return

return:                                           ; preds = %sw.default, %sw.bb
  %1 = load i32, ptr %retval, align 4
  ret i32 %1
}

; Function Attrs: nounwind sspstrong uwtable
define internal i32 @ahci_state_post_load(ptr noundef %opaque, i32 noundef %version_id) #0 {
entry:
  %retval = alloca i32, align 4
  %opaque.addr = alloca ptr, align 8
  %version_id.addr = alloca i32, align 4
  %i = alloca i32, align 4
  %j = alloca i32, align 4
  %ad = alloca ptr, align 8
  %ncq_tfs = alloca ptr, align 8
  %pr = alloca ptr, align 8
  %s = alloca ptr, align 8
  store ptr %opaque, ptr %opaque.addr, align 8
  store i32 %version_id, ptr %version_id.addr, align 4
  %0 = load ptr, ptr %opaque.addr, align 8
  store ptr %0, ptr %s, align 8
  store i32 0, ptr %i, align 4
  br label %for.cond

for.cond:                                         ; preds = %for.inc80, %entry
  %1 = load i32, ptr %i, align 4
  %2 = load ptr, ptr %s, align 8
  %ports = getelementptr inbounds %struct.AHCIState, ptr %2, i32 0, i32 7
  %3 = load i32, ptr %ports, align 8
  %cmp = icmp slt i32 %1, %3
  br i1 %cmp, label %for.body, label %for.end82

for.body:                                         ; preds = %for.cond
  %4 = load ptr, ptr %s, align 8
  %dev = getelementptr inbounds %struct.AHCIState, ptr %4, i32 0, i32 1
  %5 = load ptr, ptr %dev, align 8
  %6 = load i32, ptr %i, align 4
  %idxprom = sext i32 %6 to i64
  %arrayidx = getelementptr %struct.AHCIDevice, ptr %5, i64 %idxprom
  store ptr %arrayidx, ptr %ad, align 8
  %7 = load ptr, ptr %ad, align 8
  %port_regs = getelementptr inbounds %struct.AHCIDevice, ptr %7, i32 0, i32 5
  store ptr %port_regs, ptr %pr, align 8
  %8 = load ptr, ptr %pr, align 8
  %cmd = getelementptr inbounds %struct.AHCIPortRegs, ptr %8, i32 0, i32 6
  %9 = load i32, ptr %cmd, align 4
  %and = and i32 %9, 1
  %tobool = icmp ne i32 %and, 0
  br i1 %tobool, label %if.end, label %land.lhs.true

land.lhs.true:                                    ; preds = %for.body
  %10 = load ptr, ptr %pr, align 8
  %cmd1 = getelementptr inbounds %struct.AHCIPortRegs, ptr %10, i32 0, i32 6
  %11 = load i32, ptr %cmd1, align 4
  %and2 = and i32 %11, 32768
  %tobool3 = icmp ne i32 %and2, 0
  br i1 %tobool3, label %if.then, label %if.end

if.then:                                          ; preds = %land.lhs.true
  call void (ptr, ...) @error_report(ptr noundef @.str.195)
  store i32 -1, ptr %retval, align 4
  br label %return

if.end:                                           ; preds = %land.lhs.true, %for.body
  %12 = load ptr, ptr %pr, align 8
  %cmd4 = getelementptr inbounds %struct.AHCIPortRegs, ptr %12, i32 0, i32 6
  %13 = load i32, ptr %cmd4, align 4
  %and5 = and i32 %13, 16
  %tobool6 = icmp ne i32 %and5, 0
  br i1 %tobool6, label %if.end12, label %land.lhs.true7

land.lhs.true7:                                   ; preds = %if.end
  %14 = load ptr, ptr %pr, align 8
  %cmd8 = getelementptr inbounds %struct.AHCIPortRegs, ptr %14, i32 0, i32 6
  %15 = load i32, ptr %cmd8, align 4
  %and9 = and i32 %15, 16384
  %tobool10 = icmp ne i32 %and9, 0
  br i1 %tobool10, label %if.then11, label %if.end12

if.then11:                                        ; preds = %land.lhs.true7
  call void (ptr, ...) @error_report(ptr noundef @.str.196)
  store i32 -1, ptr %retval, align 4
  br label %return

if.end12:                                         ; preds = %land.lhs.true7, %if.end
  %16 = load ptr, ptr %pr, align 8
  %cmd13 = getelementptr inbounds %struct.AHCIPortRegs, ptr %16, i32 0, i32 6
  %17 = load i32, ptr %cmd13, align 4
  %and14 = and i32 %17, -49153
  store i32 %and14, ptr %cmd13, align 4
  %18 = load ptr, ptr %ad, align 8
  %call = call i32 @ahci_cond_start_engines(ptr noundef %18)
  %cmp15 = icmp ne i32 %call, 0
  br i1 %cmp15, label %if.then16, label %if.end17

if.then16:                                        ; preds = %if.end12
  store i32 -1, ptr %retval, align 4
  br label %return

if.end17:                                         ; preds = %if.end12
  store i32 0, ptr %j, align 4
  br label %for.cond18

for.cond18:                                       ; preds = %for.inc, %if.end17
  %19 = load i32, ptr %j, align 4
  %cmp19 = icmp slt i32 %19, 32
  br i1 %cmp19, label %for.body20, label %for.end

for.body20:                                       ; preds = %for.cond18
  %20 = load ptr, ptr %ad, align 8
  %ncq_tfs21 = getelementptr inbounds %struct.AHCIDevice, ptr %20, i32 0, i32 14
  %21 = load i32, ptr %j, align 4
  %idxprom22 = sext i32 %21 to i64
  %arrayidx23 = getelementptr [32 x %struct.NCQTransferState], ptr %ncq_tfs21, i64 0, i64 %idxprom22
  store ptr %arrayidx23, ptr %ncq_tfs, align 8
  %22 = load ptr, ptr %ad, align 8
  %23 = load ptr, ptr %ncq_tfs, align 8
  %drive = getelementptr inbounds %struct.NCQTransferState, ptr %23, i32 0, i32 0
  store ptr %22, ptr %drive, align 8
  %24 = load ptr, ptr %ncq_tfs, align 8
  %used = getelementptr inbounds %struct.NCQTransferState, ptr %24, i32 0, i32 10
  %25 = load i8, ptr %used, align 1
  %tobool24 = trunc i8 %25 to i1
  %conv = zext i1 %tobool24 to i32
  %26 = load ptr, ptr %ncq_tfs, align 8
  %halt = getelementptr inbounds %struct.NCQTransferState, ptr %26, i32 0, i32 11
  %27 = load i8, ptr %halt, align 4
  %tobool25 = trunc i8 %27 to i1
  %conv26 = zext i1 %tobool25 to i32
  %cmp27 = icmp ne i32 %conv, %conv26
  br i1 %cmp27, label %if.then29, label %if.end30

if.then29:                                        ; preds = %for.body20
  store i32 -1, ptr %retval, align 4
  br label %return

if.end30:                                         ; preds = %for.body20
  %28 = load ptr, ptr %ncq_tfs, align 8
  %halt31 = getelementptr inbounds %struct.NCQTransferState, ptr %28, i32 0, i32 11
  %29 = load i8, ptr %halt31, align 4
  %tobool32 = trunc i8 %29 to i1
  br i1 %tobool32, label %if.end34, label %if.then33

if.then33:                                        ; preds = %if.end30
  br label %for.inc

if.end34:                                         ; preds = %if.end30
  %30 = load ptr, ptr %ncq_tfs, align 8
  %cmd35 = getelementptr inbounds %struct.NCQTransferState, ptr %30, i32 0, i32 8
  %31 = load i8, ptr %cmd35, align 1
  %call36 = call i32 @is_ncq(i8 noundef zeroext %31)
  %tobool37 = icmp ne i32 %call36, 0
  br i1 %tobool37, label %if.end39, label %if.then38

if.then38:                                        ; preds = %if.end34
  store i32 -1, ptr %retval, align 4
  br label %return

if.end39:                                         ; preds = %if.end34
  %32 = load ptr, ptr %ncq_tfs, align 8
  %slot = getelementptr inbounds %struct.NCQTransferState, ptr %32, i32 0, i32 9
  %33 = load i8, ptr %slot, align 2
  %conv40 = zext i8 %33 to i32
  %34 = load ptr, ptr %ncq_tfs, align 8
  %tag = getelementptr inbounds %struct.NCQTransferState, ptr %34, i32 0, i32 7
  %35 = load i8, ptr %tag, align 8
  %conv41 = zext i8 %35 to i32
  %cmp42 = icmp ne i32 %conv40, %conv41
  br i1 %cmp42, label %if.then44, label %if.end45

if.then44:                                        ; preds = %if.end39
  store i32 -1, ptr %retval, align 4
  br label %return

if.end45:                                         ; preds = %if.end39
  %36 = load ptr, ptr %s, align 8
  %37 = load i32, ptr %i, align 4
  %conv46 = trunc i32 %37 to i8
  %38 = load ptr, ptr %ncq_tfs, align 8
  %slot47 = getelementptr inbounds %struct.NCQTransferState, ptr %38, i32 0, i32 9
  %39 = load i8, ptr %slot47, align 2
  %call48 = call ptr @get_cmd_header(ptr noundef %36, i8 noundef zeroext %conv46, i8 noundef zeroext %39)
  %40 = load ptr, ptr %ncq_tfs, align 8
  %cmdh = getelementptr inbounds %struct.NCQTransferState, ptr %40, i32 0, i32 2
  store ptr %call48, ptr %cmdh, align 8
  %41 = load ptr, ptr %ncq_tfs, align 8
  %cmdh49 = getelementptr inbounds %struct.NCQTransferState, ptr %41, i32 0, i32 2
  %42 = load ptr, ptr %cmdh49, align 8
  %tobool50 = icmp ne ptr %42, null
  br i1 %tobool50, label %if.end52, label %if.then51

if.then51:                                        ; preds = %if.end45
  store i32 -1, ptr %retval, align 4
  br label %return

if.end52:                                         ; preds = %if.end45
  %43 = load ptr, ptr %ncq_tfs, align 8
  %drive53 = getelementptr inbounds %struct.NCQTransferState, ptr %43, i32 0, i32 0
  %44 = load ptr, ptr %drive53, align 8
  %45 = load ptr, ptr %ncq_tfs, align 8
  %sglist = getelementptr inbounds %struct.NCQTransferState, ptr %45, i32 0, i32 3
  %46 = load ptr, ptr %ncq_tfs, align 8
  %cmdh54 = getelementptr inbounds %struct.NCQTransferState, ptr %46, i32 0, i32 2
  %47 = load ptr, ptr %cmdh54, align 8
  %48 = load ptr, ptr %ncq_tfs, align 8
  %sector_count = getelementptr inbounds %struct.NCQTransferState, ptr %48, i32 0, i32 5
  %49 = load i32, ptr %sector_count, align 8
  %conv55 = zext i32 %49 to i64
  %mul = mul i64 %conv55, 512
  %call56 = call i32 @ahci_populate_sglist(ptr noundef %44, ptr noundef %sglist, ptr noundef %47, i64 noundef %mul, i64 noundef 0)
  %50 = load ptr, ptr %ncq_tfs, align 8
  %sector_count57 = getelementptr inbounds %struct.NCQTransferState, ptr %50, i32 0, i32 5
  %51 = load i32, ptr %sector_count57, align 8
  %conv58 = zext i32 %51 to i64
  %52 = load ptr, ptr %ncq_tfs, align 8
  %sglist59 = getelementptr inbounds %struct.NCQTransferState, ptr %52, i32 0, i32 3
  %size = getelementptr inbounds %struct.QEMUSGList, ptr %sglist59, i32 0, i32 3
  %53 = load i64, ptr %size, align 8
  %shr = lshr i64 %53, 9
  %cmp60 = icmp ne i64 %conv58, %shr
  br i1 %cmp60, label %if.then62, label %if.end63

if.then62:                                        ; preds = %if.end52
  store i32 -1, ptr %retval, align 4
  br label %return

if.end63:                                         ; preds = %if.end52
  br label %for.inc

for.inc:                                          ; preds = %if.end63, %if.then33
  %54 = load i32, ptr %j, align 4
  %inc = add i32 %54, 1
  store i32 %inc, ptr %j, align 4
  br label %for.cond18, !llvm.loop !12

for.end:                                          ; preds = %for.cond18
  %55 = load ptr, ptr %ad, align 8
  %busy_slot = getelementptr inbounds %struct.AHCIDevice, ptr %55, i32 0, i32 11
  %56 = load i32, ptr %busy_slot, align 4
  %cmp64 = icmp eq i32 %56, -1
  br i1 %cmp64, label %if.then66, label %if.else

if.then66:                                        ; preds = %for.end
  %57 = load ptr, ptr %s, align 8
  %58 = load i32, ptr %i, align 4
  call void @check_cmd(ptr noundef %57, i32 noundef %58)
  br label %if.end79

if.else:                                          ; preds = %for.end
  %59 = load ptr, ptr %ad, align 8
  %busy_slot67 = getelementptr inbounds %struct.AHCIDevice, ptr %59, i32 0, i32 11
  %60 = load i32, ptr %busy_slot67, align 4
  %cmp68 = icmp slt i32 %60, 0
  br i1 %cmp68, label %if.then73, label %lor.lhs.false

lor.lhs.false:                                    ; preds = %if.else
  %61 = load ptr, ptr %ad, align 8
  %busy_slot70 = getelementptr inbounds %struct.AHCIDevice, ptr %61, i32 0, i32 11
  %62 = load i32, ptr %busy_slot70, align 4
  %cmp71 = icmp sge i32 %62, 32
  br i1 %cmp71, label %if.then73, label %if.end74

if.then73:                                        ; preds = %lor.lhs.false, %if.else
  store i32 -1, ptr %retval, align 4
  br label %return

if.end74:                                         ; preds = %lor.lhs.false
  %63 = load ptr, ptr %s, align 8
  %64 = load i32, ptr %i, align 4
  %conv75 = trunc i32 %64 to i8
  %65 = load ptr, ptr %ad, align 8
  %busy_slot76 = getelementptr inbounds %struct.AHCIDevice, ptr %65, i32 0, i32 11
  %66 = load i32, ptr %busy_slot76, align 4
  %conv77 = trunc i32 %66 to i8
  %call78 = call ptr @get_cmd_header(ptr noundef %63, i8 noundef zeroext %conv75, i8 noundef zeroext %conv77)
  %67 = load ptr, ptr %ad, align 8
  %cur_cmd = getelementptr inbounds %struct.AHCIDevice, ptr %67, i32 0, i32 13
  store ptr %call78, ptr %cur_cmd, align 8
  br label %if.end79

if.end79:                                         ; preds = %if.end74, %if.then66
  br label %for.inc80

for.inc80:                                        ; preds = %if.end79
  %68 = load i32, ptr %i, align 4
  %inc81 = add i32 %68, 1
  store i32 %inc81, ptr %i, align 4
  br label %for.cond, !llvm.loop !13

for.end82:                                        ; preds = %for.cond
  store i32 0, ptr %retval, align 4
  br label %return

return:                                           ; preds = %for.end82, %if.then73, %if.then62, %if.then51, %if.then44, %if.then38, %if.then29, %if.then16, %if.then11, %if.then
  %69 = load i32, ptr %retval, align 4
  ret i32 %69
}