; Function Attrs: nounwind sspstrong uwtable
define internal range(i32 -1, 1) i32 @ahci_state_post_load(ptr noundef %opaque, i32 %version_id) #0 {
entry:
  %ports = getelementptr inbounds nuw i8, ptr %opaque, i64 600
  %0 = load i32, ptr %ports, align 8
  %cmp65 = icmp sgt i32 %0, 0
  br i1 %cmp65, label %for.body.lr.ph, label %return

for.body.lr.ph:                                   ; preds = %entry
  %dev = getelementptr inbounds nuw i8, ptr %opaque, i64 8
  br label %for.body

for.body:                                         ; preds = %for.body.lr.ph, %for.inc80
  %i.066 = phi i32 [ 0, %for.body.lr.ph ], [ %inc81, %for.inc80 ]
  %1 = load ptr, ptr %dev, align 8
  %idxprom = zext nneg i32 %i.066 to i64
  %arrayidx = getelementptr %struct.AHCIDevice, ptr %1, i64 %idxprom
  %cmd = getelementptr inbounds nuw i8, ptr %arrayidx, i64 2396
  %2 = load i32, ptr %cmd, align 4
  %3 = and i32 %2, 32769
  %or.cond.not = icmp eq i32 %3, 32768
  br i1 %or.cond.not, label %if.then, label %if.end

if.then:                                          ; preds = %for.body
  tail call void (ptr, ...) @error_report(ptr noundef nonnull @.str.195) #12
  br label %return

if.end:                                           ; preds = %for.body
  %4 = and i32 %2, 16400
  %or.cond39.not = icmp eq i32 %4, 16384
  br i1 %or.cond39.not, label %if.then11, label %if.end12

if.then11:                                        ; preds = %if.end
  tail call void (ptr, ...) @error_report(ptr noundef nonnull @.str.196) #12
  br label %return

if.end12:                                         ; preds = %if.end
  %and14 = and i32 %2, -49153
  store i32 %and14, ptr %cmd, align 4
  %call = tail call fastcc i32 @ahci_cond_start_engines(ptr noundef %arrayidx)
  %cmp15.not = icmp eq i32 %call, 0
  br i1 %cmp15.not, label %for.cond18.preheader, label %return

for.cond18.preheader:                             ; preds = %if.end12
  %ncq_tfs21 = getelementptr inbounds nuw i8, ptr %arrayidx, i64 2496
  %conv.i = and i32 %i.066, 255
  %idxprom.i = zext nneg i32 %conv.i to i64
  br label %for.body20

for.body20:                                       ; preds = %for.cond18.preheader, %for.inc
  %indvars.iv = phi i64 [ 0, %for.cond18.preheader ], [ %indvars.iv.next, %for.inc ]
  %arrayidx23 = getelementptr [32 x %struct.NCQTransferState], ptr %ncq_tfs21, i64 0, i64 %indvars.iv
  store ptr %arrayidx, ptr %arrayidx23, align 8
  %used = getelementptr inbounds nuw i8, ptr %arrayidx23, i64 107
  %5 = load i8, ptr %used, align 1
  %halt = getelementptr inbounds nuw i8, ptr %arrayidx23, i64 108
  %6 = load i8, ptr %halt, align 4
  %7 = xor i8 %6, %5
  %8 = and i8 %7, 1
  %cmp27.not = icmp eq i8 %8, 0
  br i1 %cmp27.not, label %if.end30, label %return

if.end30:                                         ; preds = %for.body20
  %tobool25 = trunc i8 %6 to i1
  br i1 %tobool25, label %if.end34, label %for.inc

if.end34:                                         ; preds = %if.end30
  %cmd35 = getelementptr inbounds nuw i8, ptr %arrayidx23, i64 105
  %9 = load i8, ptr %cmd35, align 1
  switch i8 %9, label %return [
    i8 96, label %if.end39
    i8 97, label %if.end39
    i8 99, label %if.end39
    i8 101, label %if.end39
    i8 100, label %if.end39
  ]

if.end39:                                         ; preds = %if.end34, %if.end34, %if.end34, %if.end34, %if.end34
  %slot = getelementptr inbounds nuw i8, ptr %arrayidx23, i64 106
  %10 = load i8, ptr %slot, align 2
  %tag = getelementptr inbounds nuw i8, ptr %arrayidx23, i64 104
  %11 = load i8, ptr %tag, align 8
  %cmp42.not = icmp eq i8 %10, %11
  br i1 %cmp42.not, label %if.end45, label %return

if.end45:                                         ; preds = %if.end39
  %12 = load i32, ptr %ports, align 8
  %cmp.i = icmp sle i32 %12, %conv.i
  %cmp3.i = icmp ugt i8 %10, 31
  %or.cond.i = or i1 %cmp3.i, %cmp.i
  br i1 %or.cond.i, label %get_cmd_header.exit.thread, label %if.end.i

if.end.i:                                         ; preds = %if.end45
  %13 = load ptr, ptr %dev, align 8
  %lst.i = getelementptr %struct.AHCIDevice, ptr %13, i64 %idxprom.i, i32 8
  %14 = load ptr, ptr %lst.i, align 8
  %tobool.not.i = icmp eq ptr %14, null
  %idxprom9.i = zext nneg i8 %10 to i64
  %arrayidx10.i = getelementptr %struct.AHCICmdHdr, ptr %14, i64 %idxprom9.i
  br i1 %tobool.not.i, label %get_cmd_header.exit.thread, label %get_cmd_header.exit

get_cmd_header.exit.thread:                       ; preds = %if.end45, %if.end.i
  %cmdh60 = getelementptr inbounds nuw i8, ptr %arrayidx23, i64 16
  store ptr null, ptr %cmdh60, align 8
  br label %return

get_cmd_header.exit:                              ; preds = %if.end.i
  %cmdh = getelementptr inbounds nuw i8, ptr %arrayidx23, i64 16
  store ptr %arrayidx10.i, ptr %cmdh, align 8
  %tobool50.not = icmp eq ptr %arrayidx10.i, null
  br i1 %tobool50.not, label %return, label %if.end52

if.end52:                                         ; preds = %get_cmd_header.exit
  %sglist = getelementptr inbounds nuw i8, ptr %arrayidx23, i64 24
  %sector_count = getelementptr inbounds nuw i8, ptr %arrayidx23, i64 88
  %15 = load i32, ptr %sector_count, align 8
  %conv55 = zext i32 %15 to i64
  %mul = shl nuw nsw i64 %conv55, 9
  %call56 = tail call fastcc i32 @ahci_populate_sglist(ptr noundef %arrayidx, ptr noundef nonnull %sglist, ptr noundef nonnull %arrayidx10.i, i64 noundef %mul, i64 noundef 0)
  %16 = load i32, ptr %sector_count, align 8
  %conv58 = zext i32 %16 to i64
  %size = getelementptr inbounds nuw i8, ptr %arrayidx23, i64 40
  %17 = load i64, ptr %size, align 8
  %shr = lshr i64 %17, 9
  %cmp60.not = icmp eq i64 %shr, %conv58
  br i1 %cmp60.not, label %for.inc, label %return

for.inc:                                          ; preds = %if.end52, %if.end30
  %indvars.iv.next = add nuw nsw i64 %indvars.iv, 1
  %exitcond.not = icmp eq i64 %indvars.iv.next, 32
  br i1 %exitcond.not, label %for.end, label %for.body20, !llvm.loop !11

for.end:                                          ; preds = %for.inc
  %busy_slot = getelementptr inbounds nuw i8, ptr %arrayidx, i64 2476
  %18 = load i32, ptr %busy_slot, align 4
  %cmp64 = icmp eq i32 %18, -1
  br i1 %cmp64, label %if.then66, label %if.else

if.then66:                                        ; preds = %for.end
  tail call fastcc void @check_cmd(ptr noundef %opaque, i32 noundef %i.066)
  br label %for.inc80

if.else:                                          ; preds = %for.end
  %or.cond40 = icmp ugt i32 %18, 31
  br i1 %or.cond40, label %return, label %if.end74

if.end74:                                         ; preds = %if.else
  %19 = load i32, ptr %ports, align 8
  %cmp.i44.not = icmp sgt i32 %19, %conv.i
  br i1 %cmp.i44.not, label %if.end.i47, label %get_cmd_header.exit56

if.end.i47:                                       ; preds = %if.end74
  %conv77 = zext nneg i32 %18 to i64
  %20 = load ptr, ptr %dev, align 8
  %lst.i50 = getelementptr %struct.AHCIDevice, ptr %20, i64 %idxprom.i, i32 8
  %21 = load ptr, ptr %lst.i50, align 8
  %tobool.not.i51 = icmp eq ptr %21, null
  %arrayidx10.i53 = getelementptr %struct.AHCICmdHdr, ptr %21, i64 %conv77
  %cond.i54 = select i1 %tobool.not.i51, ptr null, ptr %arrayidx10.i53
  br label %get_cmd_header.exit56

get_cmd_header.exit56:                            ; preds = %if.end74, %if.end.i47
  %retval.0.i55 = phi ptr [ %cond.i54, %if.end.i47 ], [ null, %if.end74 ]
  %cur_cmd = getelementptr inbounds nuw i8, ptr %arrayidx, i64 2488
  store ptr %retval.0.i55, ptr %cur_cmd, align 8
  br label %for.inc80

for.inc80:                                        ; preds = %if.then66, %get_cmd_header.exit56
  %inc81 = add nuw nsw i32 %i.066, 1
  %22 = load i32, ptr %ports, align 8
  %cmp = icmp slt i32 %inc81, %22
  br i1 %cmp, label %for.body, label %return, !llvm.loop !12

return:                                           ; preds = %if.end12, %if.else, %for.inc80, %if.end34, %if.end52, %get_cmd_header.exit, %if.end39, %for.body20, %entry, %get_cmd_header.exit.thread, %if.then11, %if.then
  %retval.0 = phi i32 [ -1, %if.then11 ], [ -1, %if.then ], [ -1, %get_cmd_header.exit.thread ], [ 0, %entry ], [ -1, %for.body20 ], [ -1, %if.end39 ], [ -1, %get_cmd_header.exit ], [ -1, %if.end52 ], [ -1, %if.end34 ], [ -1, %if.end12 ], [ -1, %if.else ], [ 0, %for.inc80 ]
  ret i32 %retval.0
}